#include <math.h>
#include <stdio.h>
#include <stdlib.h>
#include <string.h>
#include <iostream>
using namespace std;

int main()
{
	char n[5];
	int i, k, j;
	cin.getline(n, 5);
	for (i = 0;n[i] != '\0'; i++)
	{
		k = i;
	}
	for (j = k; j >= 0; j--)
		cout << n[j];
	return 0 ;
}